target datalayout = "e-m:e-p270:32:32-p271:32:32-p272:64:64-i64:64-i128:128-f80:128-n8:16:32:64-S128"
target triple = "x86_64-pc-linux-gnu"

%struct._object = type { %union.anon, ptr }
%union.anon = type { i64 }
%struct._typeobject = type { %struct.PyVarObject, ptr, i64, i64, ptr, i64, ptr, ptr, ptr, ptr, ptr, ptr, ptr, ptr, ptr, ptr, ptr, ptr, ptr, i64, ptr, ptr, ptr, ptr, i64, ptr, ptr, ptr, ptr, ptr, ptr, ptr, ptr, ptr, i64, ptr, ptr, ptr, ptr, ptr, ptr, ptr, ptr, ptr, ptr, ptr, i32, ptr, ptr, i8, i16 }
%struct.PyVarObject = type { %struct._object, i64 }
%struct.pysqlite_state = type { ptr, ptr, ptr, ptr, ptr, ptr, ptr, ptr, ptr, ptr, ptr, ptr, ptr, i32, i32, ptr, ptr, ptr, ptr, ptr, ptr, ptr, ptr, ptr, ptr, ptr, ptr, ptr, ptr }
%struct._callback_context = type { ptr, ptr, ptr }
%struct.Py_buffer = type { ptr, ptr, i64, i64, i32, i32, ptr, ptr, ptr, ptr, ptr }

@_Py_NoneStruct = external global %struct._object, align 8
@PyFloat_Type = external global %struct._typeobject, align 8
@PyExc_OverflowError = external global ptr, align 8
@.str.63 = private unnamed_addr constant [36 x i8] c"string is longer than INT_MAX bytes\00", align 1
@.str.64 = private unnamed_addr constant [31 x i8] c"BLOB longer than INT_MAX bytes\00", align 1
@.str.65 = private unnamed_addr constant [59 x i8] c"User-defined functions cannot return '%s' values to SQLite\00", align 1

; Function Attrs: inlinehint nounwind uwtable
define internal i32 @Py_IS_TYPE(ptr noundef %0, ptr noundef %1) #2 {
  %3 = alloca ptr, align 8
  %4 = alloca ptr, align 8
  store ptr %0, ptr %3, align 8, !tbaa !22
  store ptr %1, ptr %4, align 8, !tbaa !21
  %5 = load ptr, ptr %3, align 8, !tbaa !22
  %6 = call ptr @_Py_TYPE(ptr noundef %5)
  %7 = load ptr, ptr %4, align 8, !tbaa !21
  %8 = icmp eq ptr %6, %7
  %9 = zext i1 %8 to i32
  ret i32 %9
}

; Function Attrs: inlinehint nounwind uwtable
define internal i32 @PyObject_TypeCheck(ptr noundef %0, ptr noundef %1) #2 {
  %3 = alloca ptr, align 8
  %4 = alloca ptr, align 8
  store ptr %0, ptr %3, align 8, !tbaa !22
  store ptr %1, ptr %4, align 8, !tbaa !21
  %5 = load ptr, ptr %3, align 8, !tbaa !22
  %6 = load ptr, ptr %4, align 8, !tbaa !21
  %7 = call i32 @Py_IS_TYPE(ptr noundef %5, ptr noundef %6)
  %8 = icmp ne i32 %7, 0
  br i1 %8, label %15, label %9

9:                                                ; preds = %2
  %10 = load ptr, ptr %3, align 8, !tbaa !22
  %11 = call ptr @_Py_TYPE(ptr noundef %10)
  %12 = load ptr, ptr %4, align 8, !tbaa !21
  %13 = call i32 @PyType_IsSubtype(ptr noundef %11, ptr noundef %12)
  %14 = icmp ne i32 %13, 0
  br label %15

15:                                               ; preds = %9, %2
  %16 = phi i1 [ true, %2 ], [ %14, %9 ]
  %17 = zext i1 %16 to i32
  ret i32 %17
}

; Function Attrs: inlinehint nounwind uwtable
define internal i32 @PyType_HasFeature(ptr noundef %0, i64 noundef %1) #2 {
  %3 = alloca ptr, align 8
  %4 = alloca i64, align 8
  %5 = alloca i64, align 8
  store ptr %0, ptr %3, align 8, !tbaa !21
  store i64 %1, ptr %4, align 8, !tbaa !39
  call void @llvm.lifetime.start.p0(i64 8, ptr %5) #8
  %6 = load ptr, ptr %3, align 8, !tbaa !21
  %7 = getelementptr inbounds nuw %struct._typeobject, ptr %6, i32 0, i32 19
  %8 = load i64, ptr %7, align 8, !tbaa !73
  store i64 %8, ptr %5, align 8, !tbaa !39
  %9 = load i64, ptr %5, align 8, !tbaa !39
  %10 = load i64, ptr %4, align 8, !tbaa !39
  %11 = and i64 %9, %10
  %12 = icmp ne i64 %11, 0
  %13 = zext i1 %12 to i32
  call void @llvm.lifetime.end.p0(i64 8, ptr %5) #8
  ret i32 %13
}

; Function Attrs: inlinehint nounwind uwtable
define internal ptr @_Py_TYPE(ptr noundef %0) #2 {
  %2 = alloca ptr, align 8
  store ptr %0, ptr %2, align 8, !tbaa !22
  %3 = load ptr, ptr %2, align 8, !tbaa !22
  %4 = getelementptr inbounds nuw %struct._object, ptr %3, i32 0, i32 1
  %5 = load ptr, ptr %4, align 8, !tbaa !23
  ret ptr %5
}

; Function Attrs: nounwind uwtable
define internal i32 @_pysqlite_set_result(ptr noundef %0, ptr noundef %1) #0 {
  %3 = alloca i32, align 4
  %4 = alloca ptr, align 8
  %5 = alloca ptr, align 8
  %6 = alloca i64, align 8
  %7 = alloca i32, align 4
  %8 = alloca double, align 8
  %9 = alloca i64, align 8
  %10 = alloca ptr, align 8
  %11 = alloca %struct.Py_buffer, align 8
  %12 = alloca ptr, align 8
  store ptr %0, ptr %4, align 8, !tbaa !83
  store ptr %1, ptr %5, align 8, !tbaa !22
  %13 = load ptr, ptr %5, align 8, !tbaa !22
  %14 = icmp eq ptr %13, @_Py_NoneStruct
  br i1 %14, label %15, label %17

15:                                               ; preds = %2
  %16 = load ptr, ptr %4, align 8, !tbaa !83
  call void @sqlite3_result_null(ptr noundef %16)
  br label %122

17:                                               ; preds = %2
  %18 = load ptr, ptr %5, align 8, !tbaa !22
  %19 = call ptr @_Py_TYPE(ptr noundef %18)
  %20 = call i32 @PyType_HasFeature(ptr noundef %19, i64 noundef 16777216)
  %21 = icmp ne i32 %20, 0
  br i1 %21, label %22, label %37

22:                                               ; preds = %17
  call void @llvm.lifetime.start.p0(i64 8, ptr %6) #8
  %23 = load ptr, ptr %5, align 8, !tbaa !22
  %24 = call i64 @_pysqlite_long_as_int64(ptr noundef %23)
  store i64 %24, ptr %6, align 8, !tbaa !71
  %25 = load i64, ptr %6, align 8, !tbaa !71
  %26 = icmp eq i64 %25, -1
  br i1 %26, label %27, label %31

27:                                               ; preds = %22
  %28 = call ptr @PyErr_Occurred()
  %29 = icmp ne ptr %28, null
  br i1 %29, label %30, label %31

30:                                               ; preds = %27
  store i32 -1, ptr %3, align 4
  store i32 1, ptr %7, align 4
  br label %34

31:                                               ; preds = %27, %22
  %32 = load ptr, ptr %4, align 8, !tbaa !83
  %33 = load i64, ptr %6, align 8, !tbaa !71
  call void @sqlite3_result_int64(ptr noundef %32, i64 noundef %33)
  store i32 0, ptr %7, align 4
  br label %34

34:                                               ; preds = %31, %30
  call void @llvm.lifetime.end.p0(i64 8, ptr %6) #8
  %35 = load i32, ptr %7, align 4
  switch i32 %35, label %125 [
    i32 0, label %36
    i32 1, label %123
  ]

36:                                               ; preds = %34
  br label %121

37:                                               ; preds = %17
  %38 = load ptr, ptr %5, align 8, !tbaa !22
  %39 = call i32 @PyObject_TypeCheck(ptr noundef %38, ptr noundef @PyFloat_Type)
  %40 = icmp ne i32 %39, 0
  br i1 %40, label %41, label %56

41:                                               ; preds = %37
  call void @llvm.lifetime.start.p0(i64 8, ptr %8) #8
  %42 = load ptr, ptr %5, align 8, !tbaa !22
  %43 = call double @PyFloat_AsDouble(ptr noundef %42)
  store double %43, ptr %8, align 8, !tbaa !40
  %44 = load double, ptr %8, align 8, !tbaa !40
  %45 = fcmp oeq double %44, -1.000000e+00
  br i1 %45, label %46, label %50

46:                                               ; preds = %41
  %47 = call ptr @PyErr_Occurred()
  %48 = icmp ne ptr %47, null
  br i1 %48, label %49, label %50

49:                                               ; preds = %46
  store i32 -1, ptr %3, align 4
  store i32 1, ptr %7, align 4
  br label %53

50:                                               ; preds = %46, %41
  %51 = load ptr, ptr %4, align 8, !tbaa !83
  %52 = load double, ptr %8, align 8, !tbaa !40
  call void @sqlite3_result_double(ptr noundef %51, double noundef %52)
  store i32 0, ptr %7, align 4
  br label %53

53:                                               ; preds = %50, %49
  call void @llvm.lifetime.end.p0(i64 8, ptr %8) #8
  %54 = load i32, ptr %7, align 4
  switch i32 %54, label %125 [
    i32 0, label %55
    i32 1, label %123
  ]

55:                                               ; preds = %53
  br label %120

56:                                               ; preds = %37
  %57 = load ptr, ptr %5, align 8, !tbaa !22
  %58 = call ptr @_Py_TYPE(ptr noundef %57)
  %59 = call i32 @PyType_HasFeature(ptr noundef %58, i64 noundef 268435456)
  %60 = icmp ne i32 %59, 0
  br i1 %60, label %61, label %80

61:                                               ; preds = %56
  call void @llvm.lifetime.start.p0(i64 8, ptr %9) #8
  call void @llvm.lifetime.start.p0(i64 8, ptr %10) #8
  %62 = load ptr, ptr %5, align 8, !tbaa !22
  %63 = call ptr @PyUnicode_AsUTF8AndSize(ptr noundef %62, ptr noundef %9)
  store ptr %63, ptr %10, align 8, !tbaa !42
  %64 = load ptr, ptr %10, align 8, !tbaa !42
  %65 = icmp eq ptr %64, null
  br i1 %65, label %66, label %67

66:                                               ; preds = %61
  store i32 -1, ptr %3, align 4
  store i32 1, ptr %7, align 4
  br label %77

67:                                               ; preds = %61
  %68 = load i64, ptr %9, align 8, !tbaa !39
  %69 = icmp sgt i64 %68, 2147483647
  br i1 %69, label %70, label %72

70:                                               ; preds = %67
  %71 = load ptr, ptr @PyExc_OverflowError, align 8, !tbaa !22
  call void @PyErr_SetString(ptr noundef %71, ptr noundef @.str.63)
  store i32 -1, ptr %3, align 4
  store i32 1, ptr %7, align 4
  br label %77

72:                                               ; preds = %67
  %73 = load ptr, ptr %4, align 8, !tbaa !83
  %74 = load ptr, ptr %10, align 8, !tbaa !42
  %75 = load i64, ptr %9, align 8, !tbaa !39
  %76 = trunc i64 %75 to i32
  call void @sqlite3_result_text(ptr noundef %73, ptr noundef %74, i32 noundef %76, ptr noundef inttoptr (i64 -1 to ptr))
  store i32 0, ptr %7, align 4
  br label %77

77:                                               ; preds = %72, %70, %66
  call void @llvm.lifetime.end.p0(i64 8, ptr %10) #8
  call void @llvm.lifetime.end.p0(i64 8, ptr %9) #8
  %78 = load i32, ptr %7, align 4
  switch i32 %78, label %125 [
    i32 0, label %79
    i32 1, label %123
  ]

79:                                               ; preds = %77
  br label %119

80:                                               ; preds = %56
  %81 = load ptr, ptr %5, align 8, !tbaa !22
  %82 = call i32 @PyObject_CheckBuffer(ptr noundef %81)
  %83 = icmp ne i32 %82, 0
  br i1 %83, label %84, label %105

84:                                               ; preds = %80
  call void @llvm.lifetime.start.p0(i64 80, ptr %11) #8
  %85 = load ptr, ptr %5, align 8, !tbaa !22
  %86 = call i32 @PyObject_GetBuffer(ptr noundef %85, ptr noundef %11, i32 noundef 0)
  %87 = icmp ne i32 %86, 0
  br i1 %87, label %88, label %89

88:                                               ; preds = %84
  store i32 -1, ptr %3, align 4
  store i32 1, ptr %7, align 4
  br label %102

89:                                               ; preds = %84
  %90 = getelementptr inbounds nuw %struct.Py_buffer, ptr %11, i32 0, i32 2
  %91 = load i64, ptr %90, align 8, !tbaa !93
  %92 = icmp sgt i64 %91, 2147483647
  br i1 %92, label %93, label %95

93:                                               ; preds = %89
  %94 = load ptr, ptr @PyExc_OverflowError, align 8, !tbaa !22
  call void @PyErr_SetString(ptr noundef %94, ptr noundef @.str.64)
  call void @PyBuffer_Release(ptr noundef %11)
  store i32 -1, ptr %3, align 4
  store i32 1, ptr %7, align 4
  br label %102

95:                                               ; preds = %89
  %96 = load ptr, ptr %4, align 8, !tbaa !83
  %97 = getelementptr inbounds nuw %struct.Py_buffer, ptr %11, i32 0, i32 0
  %98 = load ptr, ptr %97, align 8, !tbaa !94
  %99 = getelementptr inbounds nuw %struct.Py_buffer, ptr %11, i32 0, i32 2
  %100 = load i64, ptr %99, align 8, !tbaa !93
  %101 = trunc i64 %100 to i32
  call void @sqlite3_result_blob(ptr noundef %96, ptr noundef %98, i32 noundef %101, ptr noundef inttoptr (i64 -1 to ptr))
  call void @PyBuffer_Release(ptr noundef %11)
  store i32 0, ptr %7, align 4
  br label %102

102:                                              ; preds = %95, %93, %88
  call void @llvm.lifetime.end.p0(i64 80, ptr %11) #8
  %103 = load i32, ptr %7, align 4
  switch i32 %103, label %125 [
    i32 0, label %104
    i32 1, label %123
  ]

104:                                              ; preds = %102
  br label %118

105:                                              ; preds = %80
  call void @llvm.lifetime.start.p0(i64 8, ptr %12) #8
  %106 = load ptr, ptr %4, align 8, !tbaa !83
  %107 = call ptr @sqlite3_user_data(ptr noundef %106)
  store ptr %107, ptr %12, align 8, !tbaa !64
  %108 = load ptr, ptr %12, align 8, !tbaa !64
  %109 = getelementptr inbounds nuw %struct._callback_context, ptr %108, i32 0, i32 2
  %110 = load ptr, ptr %109, align 8, !tbaa !82
  %111 = getelementptr inbounds nuw %struct.pysqlite_state, ptr %110, i32 0, i32 8
  %112 = load ptr, ptr %111, align 8, !tbaa !17
  %113 = load ptr, ptr %5, align 8, !tbaa !22
  %114 = call ptr @_Py_TYPE(ptr noundef %113)
  %115 = getelementptr inbounds nuw %struct._typeobject, ptr %114, i32 0, i32 1
  %116 = load ptr, ptr %115, align 8, !tbaa !66
  %117 = call ptr (ptr, ptr, ...) @PyErr_Format(ptr noundef %112, ptr noundef @.str.65, ptr noundef %116)
  store i32 -1, ptr %3, align 4
  store i32 1, ptr %7, align 4
  call void @llvm.lifetime.end.p0(i64 8, ptr %12) #8
  br label %123

118:                                              ; preds = %104
  br label %119

119:                                              ; preds = %118, %79
  br label %120

120:                                              ; preds = %119, %55
  br label %121

121:                                              ; preds = %120, %36
  br label %122

122:                                              ; preds = %121, %15
  store i32 0, ptr %3, align 4
  br label %123

123:                                              ; preds = %122, %105, %102, %77, %53, %34
  %124 = load i32, ptr %3, align 4
  ret i32 %124

125:                                              ; preds = %102, %77, %53, %34
  unreachable
}