; Function Attrs: nounwind uwtable
define internal fastcc range(i32 -1, 1) i32 @_pysqlite_set_result(ptr noundef %0, ptr noundef nonnull %1) unnamed_addr #0 {
  %3 = alloca i64, align 8
  %4 = alloca %struct.Py_buffer, align 8
  %5 = icmp eq ptr %1, @_Py_NoneStruct
  br i1 %5, label %6, label %7

6:                                                ; preds = %2
  tail call void @sqlite3_result_null(ptr noundef %0) #7
  br label %57

7:                                                ; preds = %2
  %8 = getelementptr i8, ptr %1, i64 8
  %.val47 = load ptr, ptr %8, align 8, !tbaa !16
  %9 = getelementptr i8, ptr %.val47, i64 168
  %.val49 = load i64, ptr %9, align 8, !tbaa !43
  %10 = and i64 %.val49, 16777216
  %.not = icmp eq i64 %10, 0
  br i1 %.not, label %16, label %11

11:                                               ; preds = %7
  %12 = tail call i64 @_pysqlite_long_as_int64(ptr noundef nonnull %1) #7
  %13 = icmp eq i64 %12, -1
  br i1 %13, label %14, label %.thread

14:                                               ; preds = %11
  %15 = tail call ptr @PyErr_Occurred() #7
  %.not39 = icmp eq ptr %15, null
  br i1 %.not39, label %.thread, label %57

.thread:                                          ; preds = %11, %14
  tail call void @sqlite3_result_int64(ptr noundef %0, i64 noundef %12) #7
  br label %57

16:                                               ; preds = %7
  %.not.i = icmp eq ptr %.val47, @PyFloat_Type
  br i1 %.not.i, label %PyObject_TypeCheck.exit.thread, label %PyObject_TypeCheck.exit

PyObject_TypeCheck.exit:                          ; preds = %16
  %17 = tail call i32 @PyType_IsSubtype(ptr noundef %.val47, ptr noundef nonnull @PyFloat_Type) #7
  %.not64 = icmp eq i32 %17, 0
  br i1 %.not64, label %22, label %PyObject_TypeCheck.exit.thread

PyObject_TypeCheck.exit.thread:                   ; preds = %16, %PyObject_TypeCheck.exit
  %18 = tail call double @PyFloat_AsDouble(ptr noundef nonnull %1) #7
  %19 = fcmp oeq double %18, -1.000000e+00
  br i1 %19, label %20, label %.thread54

20:                                               ; preds = %PyObject_TypeCheck.exit.thread
  %21 = tail call ptr @PyErr_Occurred() #7
  %.not38 = icmp eq ptr %21, null
  br i1 %.not38, label %.thread54, label %57

.thread54:                                        ; preds = %PyObject_TypeCheck.exit.thread, %20
  tail call void @sqlite3_result_double(ptr noundef %0, double noundef %18) #7
  br label %57

22:                                               ; preds = %PyObject_TypeCheck.exit
  %.val46 = load ptr, ptr %8, align 8, !tbaa !16
  %23 = getelementptr i8, ptr %.val46, i64 168
  %.val48 = load i64, ptr %23, align 8, !tbaa !43
  %24 = and i64 %.val48, 268435456
  %.not35 = icmp eq i64 %24, 0
  br i1 %.not35, label %35, label %25

25:                                               ; preds = %22
  call void @llvm.lifetime.start.p0(i64 8, ptr nonnull %3) #7
  %26 = call ptr @PyUnicode_AsUTF8AndSize(ptr noundef nonnull %1, ptr noundef nonnull %3) #7
  %27 = icmp eq ptr %26, null
  br i1 %27, label %.thread57, label %28

28:                                               ; preds = %25
  %29 = load i64, ptr %3, align 8, !tbaa !86
  %30 = icmp sgt i64 %29, 2147483647
  br i1 %30, label %31, label %33

31:                                               ; preds = %28
  %32 = load ptr, ptr @PyExc_OverflowError, align 8, !tbaa !25
  call void @PyErr_SetString(ptr noundef %32, ptr noundef nonnull @.str.63) #7
  br label %.thread57

.thread57:                                        ; preds = %31, %25
  call void @llvm.lifetime.end.p0(i64 8, ptr nonnull %3) #7
  br label %57

33:                                               ; preds = %28
  %34 = trunc i64 %29 to i32
  call void @sqlite3_result_text(ptr noundef %0, ptr noundef nonnull %26, i32 noundef %34, ptr noundef nonnull inttoptr (i64 -1 to ptr)) #7
  call void @llvm.lifetime.end.p0(i64 8, ptr nonnull %3) #7
  br label %57

35:                                               ; preds = %22
  %36 = tail call i32 @PyObject_CheckBuffer(ptr noundef nonnull %1) #7
  %.not36 = icmp eq i32 %36, 0
  br i1 %.not36, label %48, label %37

37:                                               ; preds = %35
  call void @llvm.lifetime.start.p0(i64 80, ptr nonnull %4) #7
  %38 = call i32 @PyObject_GetBuffer(ptr noundef nonnull %1, ptr noundef nonnull %4, i32 noundef 0) #7
  %.not37 = icmp eq i32 %38, 0
  br i1 %.not37, label %39, label %.thread61

39:                                               ; preds = %37
  %40 = getelementptr inbounds nuw i8, ptr %4, i64 16
  %41 = load i64, ptr %40, align 8, !tbaa !91
  %42 = icmp sgt i64 %41, 2147483647
  br i1 %42, label %43, label %45

43:                                               ; preds = %39
  %44 = load ptr, ptr @PyExc_OverflowError, align 8, !tbaa !25
  call void @PyErr_SetString(ptr noundef %44, ptr noundef nonnull @.str.64) #7
  call void @PyBuffer_Release(ptr noundef nonnull %4) #7
  br label %.thread61

.thread61:                                        ; preds = %43, %37
  call void @llvm.lifetime.end.p0(i64 80, ptr nonnull %4) #7
  br label %57

45:                                               ; preds = %39
  %46 = load ptr, ptr %4, align 8, !tbaa !94
  %47 = trunc i64 %41 to i32
  call void @sqlite3_result_blob(ptr noundef %0, ptr noundef %46, i32 noundef %47, ptr noundef nonnull inttoptr (i64 -1 to ptr)) #7
  call void @PyBuffer_Release(ptr noundef nonnull %4) #7
  call void @llvm.lifetime.end.p0(i64 80, ptr nonnull %4) #7
  br label %57

48:                                               ; preds = %35
  %49 = tail call ptr @sqlite3_user_data(ptr noundef %0) #7
  %50 = getelementptr inbounds nuw i8, ptr %49, i64 16
  %51 = load ptr, ptr %50, align 8, !tbaa !87
  %52 = getelementptr inbounds nuw i8, ptr %51, i64 64
  %53 = load ptr, ptr %52, align 8, !tbaa !19
  %.val = load ptr, ptr %8, align 8, !tbaa !16
  %54 = getelementptr inbounds nuw i8, ptr %.val, i64 24
  %55 = load ptr, ptr %54, align 8, !tbaa !85
  %56 = tail call ptr (ptr, ptr, ...) @PyErr_Format(ptr noundef %53, ptr noundef nonnull @.str.65, ptr noundef %55) #7
  br label %57

57:                                               ; preds = %6, %.thread, %.thread54, %33, %45, %.thread61, %.thread57, %20, %14, %48
  %.1 = phi i32 [ -1, %48 ], [ -1, %14 ], [ -1, %20 ], [ -1, %.thread57 ], [ -1, %.thread61 ], [ 0, %45 ], [ 0, %33 ], [ 0, %.thread54 ], [ 0, %.thread ], [ 0, %6 ]
  ret i32 %.1
}